; ModuleID = 'source-C-CXX/25/71.cpp'
source_filename = "source-C-CXX/25/71.cpp"
target datalayout = "e-m:e-p270:32:32-p271:32:32-p272:64:64-i64:64-f80:128-n8:16:32:64-S128"
target triple = "x86_64-pc-linux-gnu"

%"class.std::ios_base::Init" = type { i8 }
%"class.std::basic_istream" = type { i32 (...)**, i64, %"class.std::basic_ios" }
%"class.std::basic_ios" = type { %"class.std::ios_base", %"class.std::basic_ostream"*, i8, i8, %"class.std::basic_streambuf"*, %"class.std::ctype"*, %"class.std::num_put"*, %"class.std::num_get"* }
%"class.std::ios_base" = type { i32 (...)**, i64, i64, i32, i32, i32, %"struct.std::ios_base::_Callback_list"*, %"struct.std::ios_base::_Words", [8 x %"struct.std::ios_base::_Words"], i32, %"struct.std::ios_base::_Words"*, %"class.std::locale" }
%"struct.std::ios_base::_Callback_list" = type { %"struct.std::ios_base::_Callback_list"*, void (i32, %"class.std::ios_base"*, i32)*, i32, i32 }
%"struct.std::ios_base::_Words" = type { i8*, i64 }
%"class.std::locale" = type { %"class.std::locale::_Impl"* }
%"class.std::locale::_Impl" = type { i32, %"class.std::locale::facet"**, i64, %"class.std::locale::facet"**, i8** }
%"class.std::locale::facet" = type <{ i32 (...)**, i32, [4 x i8] }>
%"class.std::basic_ostream" = type { i32 (...)**, %"class.std::basic_ios" }
%"class.std::basic_streambuf" = type { i32 (...)**, i8*, i8*, i8*, i8*, i8*, i8*, %"class.std::locale" }
%"class.std::ctype" = type <{ %"class.std::locale::facet.base", [4 x i8], %struct.__locale_struct*, i8, [7 x i8], i32*, i32*, i16*, i8, [256 x i8], [256 x i8], i8, [6 x i8] }>
%"class.std::locale::facet.base" = type <{ i32 (...)**, i32 }>
%struct.__locale_struct = type { [13 x %struct.__locale_data*], i16*, i32*, i32*, [13 x i8*] }
%struct.__locale_data = type opaque
%"class.std::num_put" = type { %"class.std::locale::facet.base", [4 x i8] }
%"class.std::num_get" = type { %"class.std::locale::facet.base", [4 x i8] }

@_ZStL8__ioinit = internal global %"class.std::ios_base::Init" zeroinitializer, align 1
@__dso_handle = external hidden global i8
@_ZSt3cin = external global %"class.std::basic_istream", align 8
@_ZSt4cout = external global %"class.std::basic_ostream", align 8
@llvm.global_ctors = appending global [1 x { i32, void ()*, i8* }] [{ i32, void ()*, i8* } { i32 65535, void ()* @_GLOBAL__sub_I_71.cpp, i8* null }]

declare void @_ZNSt8ios_base4InitC1Ev(%"class.std::ios_base::Init"* nonnull align 1 dereferenceable(1)) unnamed_addr #0

; Function Attrs: nounwind
declare void @_ZNSt8ios_base4InitD1Ev(%"class.std::ios_base::Init"* nonnull align 1 dereferenceable(1)) unnamed_addr #1

; Function Attrs: nofree nounwind
declare i32 @__cxa_atexit(void (i8*)*, i8*, i8*) local_unnamed_addr #2

; Function Attrs: mustprogress norecurse sspstrong uwtable
define dso_local i32 @main() local_unnamed_addr #3 {
  %1 = alloca i8, align 1
  %2 = alloca i8, align 1
  %3 = alloca [100 x i8], align 16
  %4 = alloca i8, align 1
  %5 = getelementptr inbounds [100 x i8], [100 x i8]* %3, i64 0, i64 0
  call void @llvm.lifetime.start.p0i8(i64 100, i8* nonnull %5) #6
  call void @llvm.lifetime.start.p0i8(i64 1, i8* nonnull %4) #6
  %6 = call nonnull align 8 dereferenceable(16) %"class.std::basic_istream"* @_ZNSi3getERc(%"class.std::basic_istream"* nonnull align 8 dereferenceable(16) @_ZSt3cin, i8* nonnull align 1 dereferenceable(1) %4)
  %7 = bitcast %"class.std::basic_istream"* %6 to i8**
  %8 = load i8*, i8** %7, align 8, !tbaa !5
  %9 = getelementptr i8, i8* %8, i64 -24
  %10 = bitcast i8* %9 to i64*
  %11 = load i64, i64* %10, align 8
  %12 = bitcast %"class.std::basic_istream"* %6 to i8*
  %13 = add nsw i64 %11, 32
  %14 = getelementptr inbounds i8, i8* %12, i64 %13
  %15 = bitcast i8* %14 to i32*
  %16 = load i32, i32* %15, align 8, !tbaa !8
  %17 = and i32 %16, 5
  %18 = icmp eq i32 %17, 0
  br i1 %18, label %19, label %66

19:                                               ; preds = %0, %24
  %20 = phi i64 [ %26, %24 ], [ 0, %0 ]
  %21 = phi i32 [ %27, %24 ], [ 0, %0 ]
  %22 = load i8, i8* %4, align 1, !tbaa !18
  %23 = icmp eq i8 %22, 10
  br i1 %23, label %41, label %24

24:                                               ; preds = %19
  %25 = getelementptr inbounds [100 x i8], [100 x i8]* %3, i64 0, i64 %20
  store i8 %22, i8* %25, align 1, !tbaa !18
  %26 = add nuw i64 %20, 1
  %27 = add nuw nsw i32 %21, 1
  %28 = call nonnull align 8 dereferenceable(16) %"class.std::basic_istream"* @_ZNSi3getERc(%"class.std::basic_istream"* nonnull align 8 dereferenceable(16) @_ZSt3cin, i8* nonnull align 1 dereferenceable(1) %4)
  %29 = bitcast %"class.std::basic_istream"* %28 to i8**
  %30 = load i8*, i8** %29, align 8, !tbaa !5
  %31 = getelementptr i8, i8* %30, i64 -24
  %32 = bitcast i8* %31 to i64*
  %33 = load i64, i64* %32, align 8
  %34 = bitcast %"class.std::basic_istream"* %28 to i8*
  %35 = add nsw i64 %33, 32
  %36 = getelementptr inbounds i8, i8* %34, i64 %35
  %37 = bitcast i8* %36 to i32*
  %38 = load i32, i32* %37, align 8, !tbaa !8
  %39 = and i32 %38, 5
  %40 = icmp eq i32 %39, 0
  br i1 %40, label %19, label %44, !llvm.loop !19

41:                                               ; preds = %19
  %42 = trunc i64 %20 to i32
  %43 = icmp eq i32 %42, 0
  br i1 %43, label %66, label %44

44:                                               ; preds = %24, %41
  %45 = phi i32 [ %42, %41 ], [ %27, %24 ]
  %46 = zext i32 %45 to i64
  br label %47

47:                                               ; preds = %44, %59
  %48 = phi i64 [ 0, %44 ], [ %64, %59 ]
  %49 = phi i32 [ 0, %44 ], [ %63, %59 ]
  %50 = getelementptr inbounds [100 x i8], [100 x i8]* %3, i64 0, i64 %48
  %51 = load i8, i8* %50, align 1, !tbaa !18
  %52 = icmp eq i8 %51, 32
  br i1 %52, label %55, label %53

53:                                               ; preds = %47
  call void @llvm.lifetime.start.p0i8(i64 1, i8* nonnull %2)
  store i8 %51, i8* %2, align 1, !tbaa !18
  %54 = call nonnull align 8 dereferenceable(8) %"class.std::basic_ostream"* @_ZSt16__ostream_insertIcSt11char_traitsIcEERSt13basic_ostreamIT_T0_ES6_PKS3_l(%"class.std::basic_ostream"* nonnull align 8 dereferenceable(8) @_ZSt4cout, i8* nonnull %2, i64 1)
  call void @llvm.lifetime.end.p0i8(i64 1, i8* nonnull %2)
  br label %59

55:                                               ; preds = %47
  %56 = icmp eq i32 %49, 0
  br i1 %56, label %57, label %59

57:                                               ; preds = %55
  call void @llvm.lifetime.start.p0i8(i64 1, i8* nonnull %1)
  store i8 32, i8* %1, align 1, !tbaa !18
  %58 = call nonnull align 8 dereferenceable(8) %"class.std::basic_ostream"* @_ZSt16__ostream_insertIcSt11char_traitsIcEERSt13basic_ostreamIT_T0_ES6_PKS3_l(%"class.std::basic_ostream"* nonnull align 8 dereferenceable(8) @_ZSt4cout, i8* nonnull %1, i64 1)
  call void @llvm.lifetime.end.p0i8(i64 1, i8* nonnull %1)
  br label %59

59:                                               ; preds = %53, %57, %55
  %60 = phi i32 [ 1, %57 ], [ %49, %55 ], [ 0, %53 ]
  %61 = icmp eq i32 %60, 1
  %62 = select i1 %52, i1 %61, i1 false
  %63 = select i1 %62, i32 1, i32 %60
  %64 = add nuw nsw i64 %48, 1
  %65 = icmp eq i64 %64, %46
  br i1 %65, label %66, label %47, !llvm.loop !21

66:                                               ; preds = %59, %0, %41
  call void @llvm.lifetime.end.p0i8(i64 1, i8* nonnull %4) #6
  call void @llvm.lifetime.end.p0i8(i64 100, i8* nonnull %5) #6
  ret i32 0
}

; Function Attrs: argmemonly mustprogress nofree nosync nounwind willreturn
declare void @llvm.lifetime.start.p0i8(i64 immarg, i8* nocapture) #4

declare nonnull align 8 dereferenceable(16) %"class.std::basic_istream"* @_ZNSi3getERc(%"class.std::basic_istream"* nonnull align 8 dereferenceable(16), i8* nonnull align 1 dereferenceable(1)) local_unnamed_addr #0

; Function Attrs: argmemonly mustprogress nofree nosync nounwind willreturn
declare void @llvm.lifetime.end.p0i8(i64 immarg, i8* nocapture) #4

declare nonnull align 8 dereferenceable(8) %"class.std::basic_ostream"* @_ZSt16__ostream_insertIcSt11char_traitsIcEERSt13basic_ostreamIT_T0_ES6_PKS3_l(%"class.std::basic_ostream"* nonnull align 8 dereferenceable(8), i8*, i64) local_unnamed_addr #0

; Function Attrs: sspstrong uwtable
define internal void @_GLOBAL__sub_I_71.cpp() #5 section ".text.startup" {
  tail call void @_ZNSt8ios_base4InitC1Ev(%"class.std::ios_base::Init"* nonnull align 1 dereferenceable(1) @_ZStL8__ioinit)
  %1 = tail call i32 @__cxa_atexit(void (i8*)* bitcast (void (%"class.std::ios_base::Init"*)* @_ZNSt8ios_base4InitD1Ev to void (i8*)*), i8* getelementptr inbounds (%"class.std::ios_base::Init", %"class.std::ios_base::Init"* @_ZStL8__ioinit, i64 0, i32 0), i8* nonnull @__dso_handle) #6
  ret void
}


!llvm.module.flags = !{!0, !1, !2, !3}
!llvm.ident = !{!4}

!0 = !{i32 1, !"wchar_size", i32 4}
!1 = !{i32 7, !"PIC Level", i32 2}
!2 = !{i32 7, !"PIE Level", i32 2}
!3 = !{i32 7, !"uwtable", i32 1}
!4 = !{!"clang version 13.0.0"}
!5 = !{!6, !6, i64 0}
!6 = !{!"vtable pointer", !7, i64 0}
!7 = !{!"Simple C++ TBAA"}
!8 = !{!9, !13, i64 32}
!9 = !{!"_ZTSSt8ios_base", !10, i64 8, !10, i64 16, !12, i64 24, !13, i64 28, !13, i64 32, !14, i64 40, !15, i64 48, !11, i64 64, !16, i64 192, !14, i64 200, !17, i64 208}
!10 = !{!"long", !11, i64 0}
!11 = !{!"omnipotent char", !7, i64 0}
!12 = !{!"_ZTSSt13_Ios_Fmtflags", !11, i64 0}
!13 = !{!"_ZTSSt12_Ios_Iostate", !11, i64 0}
!14 = !{!"any pointer", !11, i64 0}
!15 = !{!"_ZTSNSt8ios_base6_WordsE", !14, i64 0, !10, i64 8}
!16 = !{!"int", !11, i64 0}
!17 = !{!"_ZTSSt6locale", !14, i64 0}
!18 = !{!11, !11, i64 0}
!19 = distinct !{!19, !20}
!20 = !{!"llvm.loop.mustprogress"}
!21 = distinct !{!21, !20}
